target datalayout = "e-m:e-p270:32:32-p271:32:32-p272:64:64-i64:64-i128:128-f80:128-n8:16:32:64-S128"
target triple = "x86_64-pc-linux-gnu"

%"class.icu_77::Calendar" = type <{ %"class.icu_77::UObject", [24 x i32], [24 x i8], i8, [7 x i8], double, ptr, i8, i16, i8, i32, i32, i32, i8, i8, i16, [4 x i8], ptr, ptr }>
%"class.icu_77::UObject" = type { ptr }

@_ZL11gCurrentEra = internal global i32 0, align 4
@_ZL17gJapaneseEraRules = internal global ptr null, align 8

; Function Attrs: inlinehint mustprogress nounwind uwtable
define linkonce_odr noundef i32 @_ZNK6icu_778Calendar11internalGetE19UCalendarDateFieldsi(ptr noundef nonnull align 8 dereferenceable(192) %0, i32 noundef %1, i32 noundef %2) #5 comdat align 2 {
  %4 = alloca ptr, align 8
  %5 = alloca i32, align 4
  %6 = alloca i32, align 4
  store ptr %0, ptr %4, align 8, !tbaa !22
  store i32 %1, ptr %5, align 4, !tbaa !24
  store i32 %2, ptr %6, align 4, !tbaa !11
  %7 = load ptr, ptr %4, align 8
  %8 = getelementptr inbounds nuw %"class.icu_77::Calendar", ptr %7, i32 0, i32 2
  %9 = load i32, ptr %5, align 4, !tbaa !24
  %10 = zext i32 %9 to i64
  %11 = getelementptr inbounds nuw [24 x i8], ptr %8, i64 0, i64 %10
  %12 = load i8, ptr %11, align 1, !tbaa !8
  %13 = sext i8 %12 to i32
  %14 = icmp sgt i32 %13, 0
  br i1 %14, label %15, label %21

15:                                               ; preds = %3
  %16 = getelementptr inbounds nuw %"class.icu_77::Calendar", ptr %7, i32 0, i32 1
  %17 = load i32, ptr %5, align 4, !tbaa !24
  %18 = zext i32 %17 to i64
  %19 = getelementptr inbounds nuw [24 x i32], ptr %16, i64 0, i64 %18
  %20 = load i32, ptr %19, align 4, !tbaa !11
  br label %23

21:                                               ; preds = %3
  %22 = load i32, ptr %6, align 4, !tbaa !11
  br label %23

23:                                               ; preds = %21, %15
  %24 = phi i32 [ %20, %15 ], [ %22, %21 ]
  ret i32 %24
}

; Function Attrs: inlinehint mustprogress nounwind uwtable
define internal noundef signext i8 @_ZL9U_FAILURE10UErrorCode(i32 noundef %0) #5 {
  %2 = alloca i32, align 4
  store i32 %0, ptr %2, align 4, !tbaa !18
  %3 = load i32, ptr %2, align 4, !tbaa !18
  %4 = icmp sgt i32 %3, 0
  %5 = zext i1 %4 to i8
  ret i8 %5
}

; Function Attrs: mustprogress uwtable
define noundef i32 @_ZN6icu_7716JapaneseCalendar21handleGetExtendedYearER10UErrorCode(ptr noundef nonnull align 8 dereferenceable(222) %0, ptr noundef nonnull align 4 dereferenceable(4) %1) unnamed_addr #1 align 2 {
  %3 = alloca i32, align 4
  %4 = alloca ptr, align 8
  %5 = alloca ptr, align 8
  %6 = alloca i32, align 4
  %7 = alloca i32, align 4
  %8 = alloca i32, align 4
  store ptr %0, ptr %4, align 8, !tbaa !3
  store ptr %1, ptr %5, align 8, !tbaa !15
  %9 = load ptr, ptr %4, align 8
  %10 = load ptr, ptr %5, align 8, !tbaa !15
  %11 = load i32, ptr %10, align 4, !tbaa !18
  %12 = call noundef signext i8 @_ZL9U_FAILURE10UErrorCode(i32 noundef %11)
  %13 = icmp ne i8 %12, 0
  br i1 %13, label %14, label %15

14:                                               ; preds = %2
  store i32 0, ptr %3, align 4
  br label %47

15:                                               ; preds = %2
  %16 = call noundef i32 @_ZNK6icu_778Calendar10newerFieldE19UCalendarDateFieldsS1_(ptr noundef nonnull align 8 dereferenceable(192) %9, i32 noundef 19, i32 noundef 1)
  %17 = icmp eq i32 %16, 19
  br i1 %17, label %18, label %23

18:                                               ; preds = %15
  %19 = call noundef i32 @_ZNK6icu_778Calendar10newerFieldE19UCalendarDateFieldsS1_(ptr noundef nonnull align 8 dereferenceable(192) %9, i32 noundef 19, i32 noundef 0)
  %20 = icmp eq i32 %19, 19
  br i1 %20, label %21, label %23

21:                                               ; preds = %18
  %22 = call noundef i32 @_ZNK6icu_778Calendar11internalGetE19UCalendarDateFieldsi(ptr noundef nonnull align 8 dereferenceable(192) %9, i32 noundef 19, i32 noundef 1970)
  store i32 %22, ptr %3, align 4
  br label %47

23:                                               ; preds = %18, %15
  call void @llvm.lifetime.start.p0(i64 4, ptr %6) #10
  %24 = load ptr, ptr @_ZL17gJapaneseEraRules, align 8, !tbaa !20
  %25 = load i32, ptr @_ZL11gCurrentEra, align 4, !tbaa !11
  %26 = call noundef i32 @_ZNK6icu_778Calendar11internalGetE19UCalendarDateFieldsi(ptr noundef nonnull align 8 dereferenceable(192) %9, i32 noundef 0, i32 noundef %25)
  %27 = load ptr, ptr %5, align 8, !tbaa !15
  %28 = call noundef i32 @_ZNK6icu_778EraRules12getStartYearEiR10UErrorCode(ptr noundef nonnull align 8 dereferenceable(16) %24, i32 noundef %26, ptr noundef nonnull align 4 dereferenceable(4) %27)
  store i32 %28, ptr %6, align 4, !tbaa !11
  %29 = load ptr, ptr %5, align 8, !tbaa !15
  %30 = load i32, ptr %29, align 4, !tbaa !18
  %31 = call noundef signext i8 @_ZL9U_FAILURE10UErrorCode(i32 noundef %30)
  %32 = icmp ne i8 %31, 0
  br i1 %32, label %33, label %34

33:                                               ; preds = %23
  store i32 0, ptr %3, align 4
  store i32 1, ptr %7, align 4
  br label %46

34:                                               ; preds = %23
  call void @llvm.lifetime.start.p0(i64 4, ptr %8) #10
  %35 = call noundef i32 @_ZNK6icu_778Calendar11internalGetE19UCalendarDateFieldsi(ptr noundef nonnull align 8 dereferenceable(192) %9, i32 noundef 1, i32 noundef 1)
  store i32 %35, ptr %8, align 4, !tbaa !11
  %36 = load i32, ptr %8, align 4, !tbaa !11
  %37 = load i32, ptr %6, align 4, !tbaa !11
  %38 = sub nsw i32 %37, 1
  %39 = call signext i8 @uprv_add32_overflow_77(i32 noundef %36, i32 noundef %38, ptr noundef %8)
  %40 = icmp ne i8 %39, 0
  br i1 %40, label %41, label %43

41:                                               ; preds = %34
  %42 = load ptr, ptr %5, align 8, !tbaa !15
  store i32 1, ptr %42, align 4, !tbaa !18
  store i32 0, ptr %3, align 4
  store i32 1, ptr %7, align 4
  br label %45

43:                                               ; preds = %34
  %44 = load i32, ptr %8, align 4, !tbaa !11
  store i32 %44, ptr %3, align 4
  store i32 1, ptr %7, align 4
  br label %45

45:                                               ; preds = %43, %41
  call void @llvm.lifetime.end.p0(i64 4, ptr %8) #10
  br label %46

46:                                               ; preds = %45, %33
  call void @llvm.lifetime.end.p0(i64 4, ptr %6) #10
  br label %47

47:                                               ; preds = %46, %21, %14
  %48 = load i32, ptr %3, align 4
  ret i32 %48
}