; Function Attrs: mustprogress uwtable
define noundef i32 @_ZN6icu_7716JapaneseCalendar21handleGetExtendedYearER10UErrorCode(ptr noundef nonnull align 8 dereferenceable(222) %0, ptr noundef nonnull align 4 dereferenceable(4) %1) unnamed_addr #1 align 2 {
  %3 = alloca i32, align 4
  %4 = load i32, ptr %1, align 4, !tbaa !9
  %5 = icmp slt i32 %4, 1
  br i1 %5, label %6, label %_ZNK6icu_778Calendar11internalGetE19UCalendarDateFieldsi.exit

6:                                                ; preds = %2
  %7 = tail call noundef i32 @_ZNK6icu_778Calendar10newerFieldE19UCalendarDateFieldsS1_(ptr noundef nonnull align 8 dereferenceable(192) %0, i32 noundef 19, i32 noundef 1)
  %8 = icmp eq i32 %7, 19
  br i1 %8, label %9, label %_ZNK6icu_778Calendar11internalGetE19UCalendarDateFieldsi.exit8

9:                                                ; preds = %6
  %10 = tail call noundef i32 @_ZNK6icu_778Calendar10newerFieldE19UCalendarDateFieldsS1_(ptr noundef nonnull align 8 dereferenceable(192) %0, i32 noundef 19, i32 noundef 0)
  %11 = icmp eq i32 %10, 19
  br i1 %11, label %12, label %_ZNK6icu_778Calendar11internalGetE19UCalendarDateFieldsi.exit8

12:                                               ; preds = %9
  %13 = getelementptr inbounds nuw i8, ptr %0, i64 123
  %14 = load i8, ptr %13, align 1, !tbaa !23
  %15 = icmp sgt i8 %14, 0
  br i1 %15, label %16, label %_ZNK6icu_778Calendar11internalGetE19UCalendarDateFieldsi.exit

16:                                               ; preds = %12
  %17 = getelementptr inbounds nuw i8, ptr %0, i64 84
  %18 = load i32, ptr %17, align 4, !tbaa !3
  br label %_ZNK6icu_778Calendar11internalGetE19UCalendarDateFieldsi.exit

_ZNK6icu_778Calendar11internalGetE19UCalendarDateFieldsi.exit8: ; preds = %9, %6
  %19 = load ptr, ptr @_ZL17gJapaneseEraRules, align 8, !tbaa !11
  %20 = load i32, ptr @_ZL11gCurrentEra, align 4, !tbaa !3
  %21 = getelementptr inbounds nuw i8, ptr %0, i64 104
  %22 = load i8, ptr %21, align 8, !tbaa !23
  %23 = icmp sgt i8 %22, 0
  %24 = getelementptr inbounds nuw i8, ptr %0, i64 8
  %25 = load i32, ptr %24, align 8
  %26 = select i1 %23, i32 %25, i32 %20
  %27 = tail call noundef i32 @_ZNK6icu_778EraRules12getStartYearEiR10UErrorCode(ptr noundef nonnull align 8 dereferenceable(16) %19, i32 noundef %26, ptr noundef nonnull align 4 dereferenceable(4) %1)
  %28 = load i32, ptr %1, align 4, !tbaa !9
  %29 = icmp slt i32 %28, 1
  br i1 %29, label %_ZNK6icu_778Calendar11internalGetE19UCalendarDateFieldsi.exit9, label %_ZNK6icu_778Calendar11internalGetE19UCalendarDateFieldsi.exit

_ZNK6icu_778Calendar11internalGetE19UCalendarDateFieldsi.exit9: ; preds = %_ZNK6icu_778Calendar11internalGetE19UCalendarDateFieldsi.exit8
  call void @llvm.lifetime.start.p0(i64 4, ptr nonnull %3) #10
  %30 = getelementptr inbounds nuw i8, ptr %0, i64 105
  %31 = load i8, ptr %30, align 1, !tbaa !23
  %32 = icmp sgt i8 %31, 0
  %33 = getelementptr inbounds nuw i8, ptr %0, i64 12
  %34 = load i32, ptr %33, align 4
  %35 = select i1 %32, i32 %34, i32 1
  store i32 %35, ptr %3, align 4, !tbaa !3
  %36 = add nsw i32 %27, -1
  %37 = call signext i8 @uprv_add32_overflow_77(i32 noundef %35, i32 noundef %36, ptr noundef nonnull %3)
  %.not7 = icmp eq i8 %37, 0
  br i1 %.not7, label %39, label %38

38:                                               ; preds = %_ZNK6icu_778Calendar11internalGetE19UCalendarDateFieldsi.exit9
  store i32 1, ptr %1, align 4, !tbaa !9
  br label %41

39:                                               ; preds = %_ZNK6icu_778Calendar11internalGetE19UCalendarDateFieldsi.exit9
  %40 = load i32, ptr %3, align 4, !tbaa !3
  br label %41

41:                                               ; preds = %39, %38
  %.2 = phi i32 [ 0, %38 ], [ %40, %39 ]
  call void @llvm.lifetime.end.p0(i64 4, ptr nonnull %3) #10
  br label %_ZNK6icu_778Calendar11internalGetE19UCalendarDateFieldsi.exit

_ZNK6icu_778Calendar11internalGetE19UCalendarDateFieldsi.exit: ; preds = %16, %12, %41, %_ZNK6icu_778Calendar11internalGetE19UCalendarDateFieldsi.exit8, %2
  %.0 = phi i32 [ 0, %2 ], [ %.2, %41 ], [ 0, %_ZNK6icu_778Calendar11internalGetE19UCalendarDateFieldsi.exit8 ], [ %18, %16 ], [ 1970, %12 ]
  ret i32 %.0
}